Certificate:
    Data:
        Version: 3 (0x2)
        Serial Number: 4096 (0x1000)
        Signature Algorithm: sha256WithRSAEncryption
        Issuer: C=MG, O=EnviroLocal, CN=Intermediate CA
        Validity
            Not Before: Jun 11 17:56:21 2026 GMT
            Not After : Jun 11 17:56:21 2027 GMT
        Subject: C=MG, CN=server
        Subject Public Key Info:
            Public Key Algorithm: rsaEncryption
                Public-Key: (2048 bit)
                Modulus:
                    00:b9:cf:f1:12:4e:8d:80:3f:9d:cb:39:80:ae:fa:
                    9c:c7:03:d3:8b:66:ef:e7:dc:01:30:b5:de:5d:fc:
                    3b:30:ab:3e:6e:32:f9:01:21:77:e1:d9:e5:b4:92:
                    02:94:4a:50:0e:dd:f2:f6:67:5a:ad:d1:ff:e9:d7:
                    93:b9:a4:92:d6:f8:a2:1c:bf:4f:9c:d8:1d:00:4e:
                    7e:9b:53:26:ab:05:22:aa:11:b2:7c:f4:75:91:22:
                    d1:50:a9:f5:97:25:94:1f:8c:77:d1:e4:ad:9c:4f:
                    89:5c:b8:a2:9c:a1:87:50:0d:b0:16:7e:be:13:7a:
                    b6:85:31:7f:12:84:e0:a0:9e:60:3f:fc:3e:0e:c4:
                    4c:c6:9d:46:1c:81:16:d0:ec:9a:03:bd:27:9a:ff:
                    eb:69:55:4f:db:ae:1a:b8:78:40:45:74:8b:7d:54:
                    3a:f5:43:93:c8:e7:c7:18:6c:38:b2:44:2d:b4:1e:
                    dc:6b:0a:38:74:bc:2a:36:36:cb:59:35:95:12:1a:
                    2d:ae:b3:c5:90:e4:be:3d:10:7f:c3:15:34:33:27:
                    53:43:50:1b:fe:d4:b2:bf:1b:5a:95:33:d4:d7:30:
                    d8:93:91:54:79:fa:b6:ec:76:98:45:a9:1f:c8:f5:
                    9c:41:4f:07:ba:da:10:30:34:de:20:c1:20:92:af:
                    28:73
                Exponent: 65537 (0x10001)
        X509v3 extensions:
            X509v3 Basic Constraints: 
                CA:FALSE
            Netscape Cert Type: 
                SSL Server
            X509v3 Key Usage: critical
                Digital Signature, Key Encipherment
            X509v3 Extended Key Usage: 
                TLS Web Server Authentication
            X509v3 Subject Key Identifier: 
                43:9F:23:0E:AF:DC:94:FA:6A:00:2F:B5:C9:01:B0:73:24:6C:B1:93
            X509v3 Authority Key Identifier: 
                BC:EB:0A:71:C2:AA:E9:BD:C2:86:C6:D2:D8:D2:7C:90:89:45:63:28
            X509v3 Subject Alternative Name: 
                DNS:localhost, IP Address:127.0.0.1
    Signature Algorithm: sha256WithRSAEncryption
    Signature Value:
        7b:ee:ef:49:da:4d:04:f1:c6:80:7e:26:43:63:1d:07:00:fa:
        a8:36:5d:b4:a1:5d:83:d1:fb:dd:50:68:34:f6:f3:da:50:e9:
        e4:b1:fa:ff:53:e5:dd:57:72:5c:66:cb:42:af:95:d9:b1:95:
        ea:f9:9c:9c:fa:50:e5:f2:17:fc:32:ed:92:11:42:76:15:0e:
        35:8c:9f:0f:4b:a2:3d:39:48:08:38:86:a6:45:4c:52:dc:6d:
        68:c9:ef:13:ee:48:fa:dd:7e:c9:e6:4a:bb:c1:0a:f6:47:50:
        fc:8f:52:be:06:f7:af:5d:20:ae:ab:22:d6:11:82:61:72:fe:
        ff:3f:9f:80:65:10:78:ff:85:91:44:4d:4a:29:ce:eb:52:59:
        84:46:8f:fb:5a:cb:54:ed:31:d9:47:4e:a4:c5:96:e8:bf:b7:
        c5:a6:44:51:19:ae:7c:2c:e7:62:76:df:62:2c:f3:41:49:83:
        a9:39:d2:3f:91:b6:56:c2:a5:75:c6:5b:39:9a:61:96:dd:2f:
        2d:8e:08:b2:3f:b4:07:33:f6:a7:79:fb:e6:e4:81:77:70:73:
        36:9c:ba:a9:6a:5b:02:1d:3b:23:2e:69:21:dc:d1:6d:42:26:
        dc:94:58:06:85:57:ab:13:9a:f7:4e:51:99:a5:7f:38:17:59:
        0b:4a:fb:ff
-----BEGIN CERTIFICATE-----
MIIDejCCAmKgAwIBAgICEAAwDQYJKoZIhvcNAQELBQAwPTELMAkGA1UEBhMCTUcx
FDASBgNVBAoMC0Vudmlyb0xvY2FsMRgwFgYDVQQDDA9JbnRlcm1lZGlhdGUgQ0Ew
HhcNMjYwNjExMTc1NjIxWhcNMjcwNjExMTc1NjIxWjAeMQswCQYDVQQGEwJNRzEP
MA0GA1UEAwwGc2VydmVyMIIBIjANBgkqhkiG9w0BAQEFAAOCAQ8AMIIBCgKCAQEA
uc/xEk6NgD+dyzmArvqcxwPTi2bv59wBMLXeXfw7MKs+bjL5ASF34dnltJIClEpQ
Dt3y9mdardH/6deTuaSS1viiHL9PnNgdAE5+m1MmqwUiqhGyfPR1kSLRUKn1lyWU
H4x30eStnE+JXLiinKGHUA2wFn6+E3q2hTF/EoTgoJ5gP/w+DsRMxp1GHIEW0Oya
A70nmv/raVVP264auHhARXSLfVQ69UOTyOfHGGw4skQttB7cawo4dLwqNjbLWTWV
EhotrrPFkOS+PRB/wxU0MydTQ1Ab/tSyvxtalTPU1zDYk5FUefq27HaYRakfyPWc
QU8HutoQMDTeIMEgkq8ocwIDAQABo4GiMIGfMAkGA1UdEwQCMAAwEQYJYIZIAYb4
QgEBBAQDAgZAMA4GA1UdDwEB/wQEAwIFoDATBgNVHSUEDDAKBggrBgEFBQcDATAd
BgNVHQ4EFgQUQ58jDq/clPpqAC+1yQGwcyRssZMwHwYDVR0jBBgwFoAUvOsKccKq
6b3ChsbS2NJ8kIlFYygwGgYDVR0RBBMwEYIJbG9jYWxob3N0hwR/AAABMA0GCSqG
SIb3DQEBCwUAA4IBAQB77u9J2k0E8caAfiZDYx0HAPqoNl20oV2D0fvdUGg09vPa
UOnksfr/U+XdV3JcZstCr5XZsZXq+Zyc+lDl8hf8Mu2SEUJ2FQ41jJ8PS6I9OUgI
OIamRUxS3G1oye8T7kj63X7J5kq7wQr2R1D8j1K+BvevXSCuqyLWEYJhcv7/P5+A
ZRB4/4WRRE1KKc7rUlmERo/7WstU7THZR06kxZbov7fFpkRRGa58LOdidt9iLPNB
SYOpOdI/kbZWwqV1xls5mmGW3S8tjgiyP7QHM/anefvm5IF3cHM2nLqpalsCHTsj
Lmkh3NFtQibclFgGhVerE5r3TlGZpX84F1kLSvv/
-----END CERTIFICATE-----
