Certificate:
    Data:
        Version: 3 (0x2)
        Serial Number: 4097 (0x1001)
        Signature Algorithm: sha256WithRSAEncryption
        Issuer: C=MG, O=EnviroLocal, CN=Intermediate CA
        Validity
            Not Before: Jun 11 17:56:21 2026 GMT
            Not After : Jun 11 17:56:21 2027 GMT
        Subject: C=MG, CN=client
        Subject Public Key Info:
            Public Key Algorithm: rsaEncryption
                Public-Key: (2048 bit)
                Modulus:
                    00:a9:00:82:7b:de:ae:94:8d:1a:9f:9f:3d:da:2e:
                    f5:1f:62:7f:69:1f:27:57:9e:57:2c:af:d5:e7:a7:
                    d4:47:24:f1:81:17:17:9e:5a:a0:d8:57:9d:0c:b7:
                    84:cf:a1:4c:4c:d2:9a:f1:3f:84:09:e7:99:9a:fb:
                    b5:83:96:1b:71:15:84:03:08:8b:8f:d2:dd:65:c6:
                    c0:f3:5e:0a:b8:1b:d4:a5:bd:34:f7:45:4d:0e:67:
                    04:ff:2d:09:aa:b8:89:07:c4:54:e5:bd:ed:61:55:
                    0f:47:31:39:4e:0a:4e:5f:1e:6e:56:c0:47:68:bc:
                    f7:42:48:56:0c:36:94:34:82:bd:e4:60:8e:a5:9c:
                    21:da:05:f5:09:f7:8e:6c:c3:05:4a:4f:62:36:29:
                    b4:7b:68:92:34:c9:5f:a1:51:a8:94:b9:e8:37:63:
                    f3:d5:4b:ca:ab:d2:ab:f0:46:fb:f9:55:16:4a:83:
                    b3:51:68:42:52:36:92:e3:09:b7:cb:3e:e4:b7:dd:
                    bd:4f:e3:27:91:be:c8:ce:e3:82:4d:c0:93:a5:52:
                    39:bd:89:84:14:b0:17:16:25:68:4b:00:95:55:f7:
                    76:04:18:60:71:b8:5a:03:5f:09:a0:ee:d4:8c:c1:
                    7e:ff:7d:0c:0f:6f:b2:30:ba:5c:70:94:f8:25:bb:
                    98:df
                Exponent: 65537 (0x10001)
        X509v3 extensions:
            X509v3 Basic Constraints: 
                CA:FALSE
            X509v3 Key Usage: critical
                Digital Signature
            X509v3 Extended Key Usage: 
                TLS Web Client Authentication
            X509v3 Subject Key Identifier: 
                97:C0:4F:41:18:1F:F5:2B:3C:27:BF:5F:04:E4:31:FB:61:87:8F:FE
            X509v3 Authority Key Identifier: 
                BC:EB:0A:71:C2:AA:E9:BD:C2:86:C6:D2:D8:D2:7C:90:89:45:63:28
    Signature Algorithm: sha256WithRSAEncryption
    Signature Value:
        54:08:7a:e2:ed:02:7f:f0:cd:fc:ae:1b:76:db:c5:d9:38:b1:
        15:24:36:da:0d:68:ba:8a:c0:d0:bb:1a:03:d5:95:26:dd:41:
        65:1a:77:00:fe:cf:d8:1f:10:d4:f6:c4:2f:34:74:ce:16:8b:
        00:93:6a:6a:f3:d9:0a:89:13:46:34:db:99:cd:4d:ff:74:47:
        82:c5:9e:60:f0:29:3c:5f:ce:fd:f2:fe:69:fb:71:b6:8e:c6:
        36:55:ed:c5:af:4b:80:cd:fd:09:bc:ce:c8:53:e8:03:91:5d:
        1f:4d:f7:d3:be:69:be:5b:d4:1f:0c:5f:a3:ca:45:87:23:10:
        bb:1c:53:16:32:6d:50:57:ab:98:a1:40:b9:7c:38:eb:6e:a8:
        62:93:9e:9c:46:c0:22:19:a1:7d:00:eb:a4:46:2c:f0:2c:0a:
        00:8f:37:e9:78:c1:f3:ec:ec:a8:1b:f9:23:6f:cd:a0:56:99:
        b1:16:01:0c:d3:11:7a:4d:70:81:32:d8:ba:ec:24:c2:79:2f:
        fc:ba:8f:11:1f:95:f5:58:37:d8:93:3a:16:3f:9c:bb:1a:25:
        cb:a0:d4:98:44:e6:fc:f6:8d:fe:84:4e:28:0c:cb:99:73:63:
        bf:8e:d7:ee:b0:c4:af:71:1a:1d:fb:ac:89:01:cd:63:88:59:
        4c:4c:98:87
-----BEGIN CERTIFICATE-----
MIIDSTCCAjGgAwIBAgICEAEwDQYJKoZIhvcNAQELBQAwPTELMAkGA1UEBhMCTUcx
FDASBgNVBAoMC0Vudmlyb0xvY2FsMRgwFgYDVQQDDA9JbnRlcm1lZGlhdGUgQ0Ew
HhcNMjYwNjExMTc1NjIxWhcNMjcwNjExMTc1NjIxWjAeMQswCQYDVQQGEwJNRzEP
MA0GA1UEAwwGY2xpZW50MIIBIjANBgkqhkiG9w0BAQEFAAOCAQ8AMIIBCgKCAQEA
qQCCe96ulI0an5892i71H2J/aR8nV55XLK/V56fURyTxgRcXnlqg2FedDLeEz6FM
TNKa8T+ECeeZmvu1g5YbcRWEAwiLj9LdZcbA814KuBvUpb0090VNDmcE/y0JqriJ
B8RU5b3tYVUPRzE5TgpOXx5uVsBHaLz3QkhWDDaUNIK95GCOpZwh2gX1CfeObMMF
Sk9iNim0e2iSNMlfoVGolLnoN2Pz1UvKq9Kr8Eb7+VUWSoOzUWhCUjaS4wm3yz7k
t929T+Mnkb7IzuOCTcCTpVI5vYmEFLAXFiVoSwCVVfd2BBhgcbhaA18JoO7UjMF+
/30MD2+yMLpccJT4JbuY3wIDAQABo3IwcDAJBgNVHRMEAjAAMA4GA1UdDwEB/wQE
AwIHgDATBgNVHSUEDDAKBggrBgEFBQcDAjAdBgNVHQ4EFgQUl8BPQRgf9Ss8J79f
BOQx+2GHj/4wHwYDVR0jBBgwFoAUvOsKccKq6b3ChsbS2NJ8kIlFYygwDQYJKoZI
hvcNAQELBQADggEBAFQIeuLtAn/wzfyuG3bbxdk4sRUkNtoNaLqKwNC7GgPVlSbd
QWUadwD+z9gfENT2xC80dM4WiwCTamrz2QqJE0Y025nNTf90R4LFnmDwKTxfzv3y
/mn7cbaOxjZV7cWvS4DN/Qm8zshT6AORXR9N99O+ab5b1B8MX6PKRYcjELscUxYy
bVBXq5ihQLl8OOtuqGKTnpxGwCIZoX0A66RGLPAsCgCPN+l4wfPs7Kgb+SNvzaBW
mbEWAQzTEXpNcIEy2LrsJMJ5L/y6jxEflfVYN9iTOhY/nLsaJcug1JhE5vz2jf6E
TigMy5lzY7+O1+6wxK9xGh37rIkBzWOIWUxMmIc=
-----END CERTIFICATE-----
