Certificate:
    Data:
        Version: 3 (0x2)
        Serial Number: 4098 (0x1002)
        Signature Algorithm: sha256WithRSAEncryption
        Issuer: C=MG, O=EnviroLocal, CN=Intermediate CA
        Validity
            Not Before: Jun 11 17:56:21 2026 GMT
            Not After : Jun 11 17:56:21 2027 GMT
        Subject: C=MG, CN=codesign
        Subject Public Key Info:
            Public Key Algorithm: rsaEncryption
                Public-Key: (2048 bit)
                Modulus:
                    00:af:56:cd:74:ff:93:3f:1f:e9:ff:68:84:fe:e0:
                    bb:22:16:c4:cc:e0:70:0f:f3:da:a2:b0:61:e6:29:
                    a9:21:d3:46:19:1d:ca:1b:d2:3d:86:37:2d:50:89:
                    30:91:9e:aa:9a:08:7d:d3:e4:0a:84:7f:fc:97:39:
                    83:23:06:08:87:08:7f:a8:ae:bd:17:2d:2c:c8:e1:
                    f1:17:1f:1f:d3:cc:d6:12:2e:ff:d0:f9:32:1d:06:
                    f5:56:98:eb:1e:c6:3a:31:d4:c8:13:42:c4:6d:5f:
                    29:be:96:a2:54:5e:0f:02:9a:b2:4c:78:c1:6b:77:
                    c9:a8:f0:23:d4:b0:ad:f2:f8:29:13:0e:20:de:8b:
                    05:c5:9a:a0:d8:48:0d:84:33:c0:65:15:36:0b:1e:
                    7e:a1:ba:26:ed:70:27:f8:0d:f8:ef:d1:82:f2:03:
                    d7:93:98:ee:9f:39:5a:52:02:fd:cb:12:30:64:31:
                    3b:a5:c9:63:d3:0f:54:8e:72:62:bd:f8:16:eb:80:
                    b2:b5:a2:44:33:05:c2:a9:56:6d:7b:55:4a:95:56:
                    f6:42:e3:b3:7c:5f:fb:71:fa:79:91:88:c1:35:e4:
                    df:1f:c3:b2:65:11:61:b5:b9:c3:c1:01:92:c4:4c:
                    9b:19:58:4c:ae:e9:af:4f:11:15:b5:b9:21:15:fd:
                    62:b5
                Exponent: 65537 (0x10001)
        X509v3 extensions:
            X509v3 Basic Constraints: 
                CA:FALSE
            X509v3 Key Usage: critical
                Digital Signature
            X509v3 Extended Key Usage: 
                Code Signing
            X509v3 Subject Key Identifier: 
                0F:D7:6A:DB:D0:90:D7:A5:81:2A:FF:84:23:BA:59:92:6A:E0:A4:BE
            X509v3 Authority Key Identifier: 
                BC:EB:0A:71:C2:AA:E9:BD:C2:86:C6:D2:D8:D2:7C:90:89:45:63:28
    Signature Algorithm: sha256WithRSAEncryption
    Signature Value:
        3b:14:41:86:51:ab:31:34:fc:d6:b4:64:3c:00:6e:2e:6e:b6:
        2a:26:86:20:b1:30:59:1c:02:fc:9d:93:83:fd:7e:8e:94:b8:
        62:fa:5d:dc:49:78:a4:3b:97:b7:f0:9e:3e:6a:af:ef:76:d7:
        7f:d6:4f:1d:75:58:1d:2c:d3:d7:17:06:1d:1e:5f:32:7c:5b:
        7a:9e:36:09:2a:4e:02:24:bd:5e:70:78:19:af:06:ca:9c:b0:
        2a:22:af:53:38:45:4e:1b:7f:92:e1:78:93:62:9d:97:8a:fd:
        3b:06:ab:7e:29:0f:61:56:ff:73:46:10:a6:bb:3c:91:a4:f9:
        58:30:81:04:43:5f:7f:e7:41:06:a3:b5:0f:05:7b:6b:26:ee:
        07:71:b6:21:c3:d6:df:4d:d3:0f:c9:07:da:2b:82:4b:10:f8:
        9d:93:3e:bf:cc:66:55:87:49:ab:b7:17:3b:9f:cc:48:50:6c:
        d7:3b:0d:8e:26:7a:4f:bb:b1:95:72:de:a4:01:2e:c9:e4:05:
        3a:ab:3d:f0:61:9a:14:9f:b7:12:0c:96:4c:4e:3c:06:74:03:
        98:31:7e:9d:3c:ff:d5:f4:13:7c:e1:5e:33:ff:8f:85:bc:b8:
        f6:28:91:45:b6:3c:9d:8f:09:82:22:ad:2f:ec:05:6c:49:59:
        b8:9a:c2:9e
-----BEGIN CERTIFICATE-----
MIIDSzCCAjOgAwIBAgICEAIwDQYJKoZIhvcNAQELBQAwPTELMAkGA1UEBhMCTUcx
FDASBgNVBAoMC0Vudmlyb0xvY2FsMRgwFgYDVQQDDA9JbnRlcm1lZGlhdGUgQ0Ew
HhcNMjYwNjExMTc1NjIxWhcNMjcwNjExMTc1NjIxWjAgMQswCQYDVQQGEwJNRzER
MA8GA1UEAwwIY29kZXNpZ24wggEiMA0GCSqGSIb3DQEBAQUAA4IBDwAwggEKAoIB
AQCvVs10/5M/H+n/aIT+4LsiFsTM4HAP89qisGHmKakh00YZHcob0j2GNy1QiTCR
nqqaCH3T5AqEf/yXOYMjBgiHCH+orr0XLSzI4fEXHx/TzNYSLv/Q+TIdBvVWmOse
xjox1MgTQsRtXym+lqJUXg8CmrJMeMFrd8mo8CPUsK3y+CkTDiDeiwXFmqDYSA2E
M8BlFTYLHn6huibtcCf4Dfjv0YLyA9eTmO6fOVpSAv3LEjBkMTulyWPTD1SOcmK9
+BbrgLK1okQzBcKpVm17VUqVVvZC47N8X/tx+nmRiME15N8fw7JlEWG1ucPBAZLE
TJsZWEyu6a9PERW1uSEV/WK1AgMBAAGjcjBwMAkGA1UdEwQCMAAwDgYDVR0PAQH/
BAQDAgeAMBMGA1UdJQQMMAoGCCsGAQUFBwMDMB0GA1UdDgQWBBQP12rb0JDXpYEq
/4QjulmSauCkvjAfBgNVHSMEGDAWgBS86wpxwqrpvcKGxtLY0nyQiUVjKDANBgkq
hkiG9w0BAQsFAAOCAQEAOxRBhlGrMTT81rRkPABuLm62KiaGILEwWRwC/J2Tg/1+
jpS4Yvpd3El4pDuXt/CePmqv73bXf9ZPHXVYHSzT1xcGHR5fMnxbep42CSpOAiS9
XnB4Ga8GypywKiKvUzhFTht/kuF4k2Kdl4r9OwarfikPYVb/c0YQprs8kaT5WDCB
BENff+dBBqO1DwV7aybuB3G2IcPW303TD8kH2iuCSxD4nZM+v8xmVYdJq7cXO5/M
SFBs1zsNjiZ6T7uxlXLepAEuyeQFOqs98GGaFJ+3EgyWTE48BnQDmDF+nTz/1fQT
fOFeM/+Phby49iiRRbY8nY8JgiKtL+wFbElZuJrCng==
-----END CERTIFICATE-----
